target datalayout = "e-m:e-p270:32:32-p271:32:32-p272:64:64-i64:64-i128:128-f80:128-n8:16:32:64-S128"
target triple = "x86_64-pc-linux-gnu"

%struct.H5S_t = type { %struct.H5S_extent_t, %struct.H5S_select_t }
%struct.H5S_extent_t = type { %struct.H5O_shared_t, i32, i32, i64, i32, ptr, ptr }
%struct.H5O_shared_t = type { i32, ptr, i32, %union.anon }
%union.anon = type { %struct.H5O_mesg_loc_t }
%struct.H5O_mesg_loc_t = type { i32, i64 }
%struct.H5S_select_t = type { ptr, i8, [32 x i64], i64, %union.anon.0 }
%union.anon.0 = type { ptr }
%struct.H5S_pnt_list_t = type { [32 x i64], [32 x i64], ptr, ptr, i64, ptr }
%struct.H5S_pnt_node_t = type { ptr, [0 x i64] }

@H5S_init_g = external global i8, align 1
@H5_libterm_g = external global i8, align 1
@.str = private unnamed_addr constant [102 x i8] c"generated/home/dtcxzyw/WorkSpace/Projects/compilers/llvm-opt-benchmark/bench/hdf5/hdf5/src/H5Spoint.c\00", align 1
@H5E_DATASPACE_g = external global i64, align 8
@H5E_BADRANGE_g = external global i64, align 8
@.str.47 = private unnamed_addr constant [37 x i8] c"offset moves selection out of bounds\00", align 1
@__func__.H5S__point_offset = private unnamed_addr constant [18 x i8] c"H5S__point_offset\00", align 1

; Function Attrs: nounwind uwtable
define internal i32 @H5S__point_offset(ptr noundef %0, ptr noundef %1) #0 {
  %3 = alloca i32, align 4
  %4 = alloca ptr, align 8
  %5 = alloca ptr, align 8
  %6 = alloca ptr, align 8
  %7 = alloca ptr, align 8
  %8 = alloca ptr, align 8
  %9 = alloca i64, align 8
  %10 = alloca i32, align 4
  %11 = alloca i32, align 4
  %12 = alloca i8, align 1
  %13 = alloca i64, align 8
  %14 = alloca i32, align 4
  store ptr %0, ptr %4, align 8, !tbaa !3
  store ptr %1, ptr %5, align 8, !tbaa !51
  call void @llvm.lifetime.start.p0(i64 8, ptr %6) #7
  call void @llvm.lifetime.start.p0(i64 8, ptr %7) #7
  call void @llvm.lifetime.start.p0(i64 8, ptr %8) #7
  call void @llvm.lifetime.start.p0(i64 8, ptr %9) #7
  call void @llvm.lifetime.start.p0(i64 4, ptr %10) #7
  call void @llvm.lifetime.start.p0(i64 4, ptr %11) #7
  store i32 0, ptr %11, align 4, !tbaa !10
  call void @llvm.lifetime.start.p0(i64 1, ptr %12) #7
  store i8 0, ptr %12, align 1, !tbaa !8
  %15 = load i8, ptr @H5S_init_g, align 1, !tbaa !8, !range !12, !noundef !13
  %16 = trunc i8 %15 to i1
  br i1 %16, label %21, label %17

17:                                               ; preds = %2
  %18 = load i8, ptr @H5_libterm_g, align 1, !tbaa !8, !range !12, !noundef !13
  %19 = trunc i8 %18 to i1
  %20 = xor i1 %19, true
  br label %21

21:                                               ; preds = %17, %2
  %22 = phi i1 [ true, %2 ], [ %20, %17 ]
  %23 = xor i1 %22, true
  %24 = xor i1 %23, true
  %25 = zext i1 %24 to i32
  %26 = sext i32 %25 to i64
  %27 = call i64 @llvm.expect.i64(i64 %26, i64 1)
  %28 = icmp ne i64 %27, 0
  br i1 %28, label %29, label %118

29:                                               ; preds = %21
  %30 = load ptr, ptr %5, align 8, !tbaa !51
  store i64 0, ptr %30, align 8, !tbaa !23
  %31 = load ptr, ptr %4, align 8, !tbaa !3
  %32 = getelementptr inbounds nuw %struct.H5S_t, ptr %31, i32 0, i32 1
  %33 = getelementptr inbounds nuw %struct.H5S_select_t, ptr %32, i32 0, i32 4
  %34 = load ptr, ptr %33, align 8, !tbaa !14
  %35 = getelementptr inbounds nuw %struct.H5S_pnt_list_t, ptr %34, i32 0, i32 2
  %36 = load ptr, ptr %35, align 8, !tbaa !35
  %37 = getelementptr inbounds nuw %struct.H5S_pnt_node_t, ptr %36, i32 0, i32 1
  %38 = getelementptr inbounds [0 x i64], ptr %37, i64 0, i64 0
  store ptr %38, ptr %6, align 8, !tbaa !51
  %39 = load ptr, ptr %4, align 8, !tbaa !3
  %40 = getelementptr inbounds nuw %struct.H5S_t, ptr %39, i32 0, i32 1
  %41 = getelementptr inbounds nuw %struct.H5S_select_t, ptr %40, i32 0, i32 2
  %42 = getelementptr inbounds [32 x i64], ptr %41, i64 0, i64 0
  store ptr %42, ptr %7, align 8, !tbaa !51
  %43 = load ptr, ptr %4, align 8, !tbaa !3
  %44 = getelementptr inbounds nuw %struct.H5S_t, ptr %43, i32 0, i32 0
  %45 = getelementptr inbounds nuw %struct.H5S_extent_t, ptr %44, i32 0, i32 5
  %46 = load ptr, ptr %45, align 8, !tbaa !25
  store ptr %46, ptr %8, align 8, !tbaa !51
  store i64 1, ptr %9, align 8, !tbaa !23
  %47 = load ptr, ptr %4, align 8, !tbaa !3
  %48 = getelementptr inbounds nuw %struct.H5S_t, ptr %47, i32 0, i32 0
  %49 = getelementptr inbounds nuw %struct.H5S_extent_t, ptr %48, i32 0, i32 4
  %50 = load i32, ptr %49, align 8, !tbaa !15
  %51 = sub nsw i32 %50, 1
  store i32 %51, ptr %10, align 4, !tbaa !10
  br label %52

52:                                               ; preds = %113, %29
  %53 = load i32, ptr %10, align 4, !tbaa !10
  %54 = icmp sge i32 %53, 0
  br i1 %54, label %55, label %116

55:                                               ; preds = %52
  call void @llvm.lifetime.start.p0(i64 8, ptr %13) #7
  %56 = load ptr, ptr %6, align 8, !tbaa !51
  %57 = load i32, ptr %10, align 4, !tbaa !10
  %58 = sext i32 %57 to i64
  %59 = getelementptr inbounds i64, ptr %56, i64 %58
  %60 = load i64, ptr %59, align 8, !tbaa !23
  %61 = load ptr, ptr %7, align 8, !tbaa !51
  %62 = load i32, ptr %10, align 4, !tbaa !10
  %63 = sext i32 %62 to i64
  %64 = getelementptr inbounds i64, ptr %61, i64 %63
  %65 = load i64, ptr %64, align 8, !tbaa !23
  %66 = add nsw i64 %60, %65
  store i64 %66, ptr %13, align 8, !tbaa !23
  %67 = load i64, ptr %13, align 8, !tbaa !23
  %68 = icmp slt i64 %67, 0
  br i1 %68, label %77, label %69

69:                                               ; preds = %55
  %70 = load i64, ptr %13, align 8, !tbaa !23
  %71 = load ptr, ptr %8, align 8, !tbaa !51
  %72 = load i32, ptr %10, align 4, !tbaa !10
  %73 = sext i32 %72 to i64
  %74 = getelementptr inbounds i64, ptr %71, i64 %73
  %75 = load i64, ptr %74, align 8, !tbaa !23
  %76 = icmp uge i64 %70, %75
  br i1 %76, label %77, label %96

77:                                               ; preds = %69, %55
  br label %78

78:                                               ; preds = %77
  br label %79

79:                                               ; preds = %78
  br label %80

80:                                               ; preds = %79
  %81 = load i64, ptr @H5E_DATASPACE_g, align 8, !tbaa !23
  %82 = load i64, ptr @H5E_BADRANGE_g, align 8, !tbaa !23
  %83 = call i32 (ptr, ptr, i32, i64, i64, ptr, ...) @H5E_printf_stack(ptr noundef @.str, ptr noundef @__func__.H5S__point_offset, i32 noundef 1773, i64 noundef %81, i64 noundef %82, ptr noundef @.str.47)
  br label %84

84:                                               ; preds = %80
  br label %85

85:                                               ; preds = %84
  store i8 1, ptr %12, align 1, !tbaa !8
  %86 = load i8, ptr %12, align 1, !tbaa !8, !range !12, !noundef !13
  %87 = trunc i8 %86 to i1
  %88 = zext i1 %87 to i8
  store i8 %88, ptr %12, align 1, !tbaa !8
  br label %89

89:                                               ; preds = %85
  br label %90

90:                                               ; preds = %89
  br label %91

91:                                               ; preds = %90
  store i32 -1, ptr %11, align 4, !tbaa !10
  store i32 13, ptr %14, align 4
  br label %110

92:                                               ; No predecessors!
  br label %93

93:                                               ; preds = %92
  br label %94

94:                                               ; preds = %93
  br label %95

95:                                               ; preds = %94
  br label %96

96:                                               ; preds = %95, %69
  %97 = load i64, ptr %13, align 8, !tbaa !23
  %98 = load i64, ptr %9, align 8, !tbaa !23
  %99 = mul i64 %97, %98
  %100 = load ptr, ptr %5, align 8, !tbaa !51
  %101 = load i64, ptr %100, align 8, !tbaa !23
  %102 = add i64 %101, %99
  store i64 %102, ptr %100, align 8, !tbaa !23
  %103 = load ptr, ptr %8, align 8, !tbaa !51
  %104 = load i32, ptr %10, align 4, !tbaa !10
  %105 = sext i32 %104 to i64
  %106 = getelementptr inbounds i64, ptr %103, i64 %105
  %107 = load i64, ptr %106, align 8, !tbaa !23
  %108 = load i64, ptr %9, align 8, !tbaa !23
  %109 = mul i64 %108, %107
  store i64 %109, ptr %9, align 8, !tbaa !23
  store i32 0, ptr %14, align 4
  br label %110

110:                                              ; preds = %91, %96
  call void @llvm.lifetime.end.p0(i64 8, ptr %13) #7
  %111 = load i32, ptr %14, align 4
  switch i32 %111, label %120 [
    i32 0, label %112
    i32 13, label %117
  ]

112:                                              ; preds = %110
  br label %113

113:                                              ; preds = %112
  %114 = load i32, ptr %10, align 4, !tbaa !10
  %115 = add nsw i32 %114, -1
  store i32 %115, ptr %10, align 4, !tbaa !10
  br label %52, !llvm.loop !57

116:                                              ; preds = %52
  br label %117

117:                                              ; preds = %116, %110
  br label %118

118:                                              ; preds = %117, %21
  %119 = load i32, ptr %11, align 4, !tbaa !10
  store i32 %119, ptr %3, align 4
  store i32 1, ptr %14, align 4
  br label %120

120:                                              ; preds = %118, %110
  call void @llvm.lifetime.end.p0(i64 1, ptr %12) #7
  call void @llvm.lifetime.end.p0(i64 4, ptr %11) #7
  call void @llvm.lifetime.end.p0(i64 4, ptr %10) #7
  call void @llvm.lifetime.end.p0(i64 8, ptr %9) #7
  call void @llvm.lifetime.end.p0(i64 8, ptr %8) #7
  call void @llvm.lifetime.end.p0(i64 8, ptr %7) #7
  call void @llvm.lifetime.end.p0(i64 8, ptr %6) #7
  %121 = load i32, ptr %3, align 4
  ret i32 %121
}