; Function Attrs: nounwind uwtable
define internal range(i32 -1, 1) i32 @H5S__point_offset(ptr noundef readonly captures(none) %0, ptr noundef writeonly captures(none) %1) #0 {
  %3 = load i8, ptr @H5S_init_g, align 1, !tbaa !3, !range !7, !noundef !8
  %4 = trunc nuw i8 %3 to i1
  %5 = load i8, ptr @H5_libterm_g, align 1, !range !7
  %6 = trunc nuw i8 %5 to i1
  %7 = xor i1 %6, true
  %8 = select i1 %4, i1 true, i1 %7
  br i1 %8, label %9, label %.loopexit, !prof !9

9:                                                ; preds = %2
  store i64 0, ptr %1, align 8, !tbaa !21
  %10 = getelementptr inbounds nuw i8, ptr %0, i64 360
  %11 = load ptr, ptr %10, align 8, !tbaa !10
  %12 = getelementptr inbounds nuw i8, ptr %11, i64 512
  %13 = load ptr, ptr %12, align 8, !tbaa !22
  %14 = getelementptr inbounds nuw i8, ptr %0, i64 96
  %15 = getelementptr inbounds nuw i8, ptr %0, i64 64
  %16 = load ptr, ptr %15, align 8, !tbaa !28
  %17 = getelementptr inbounds nuw i8, ptr %0, i64 56
  %18 = load i32, ptr %17, align 8, !tbaa !11
  %19 = icmp sgt i32 %18, 0
  br i1 %19, label %.lr.ph.preheader, label %.loopexit

.lr.ph.preheader:                                 ; preds = %9
  %20 = zext nneg i32 %18 to i64
  br label %.lr.ph

.lr.ph:                                           ; preds = %.lr.ph.preheader, %34
  %21 = phi i64 [ 0, %.lr.ph.preheader ], [ %36, %34 ]
  %indvars.iv = phi i64 [ %20, %.lr.ph.preheader ], [ %indvars.iv.next, %34 ]
  %.02735 = phi i64 [ 1, %.lr.ph.preheader ], [ %38, %34 ]
  %indvars.iv.next = add nsw i64 %indvars.iv, -1
  %22 = getelementptr i64, ptr %13, i64 %indvars.iv
  %23 = load i64, ptr %22, align 8, !tbaa !21
  %24 = getelementptr inbounds nuw i64, ptr %14, i64 %indvars.iv.next
  %25 = load i64, ptr %24, align 8, !tbaa !21
  %26 = add nsw i64 %25, %23
  %27 = icmp slt i64 %26, 0
  br i1 %27, label %.thread, label %28

28:                                               ; preds = %.lr.ph
  %29 = getelementptr inbounds nuw i64, ptr %16, i64 %indvars.iv.next
  %30 = load i64, ptr %29, align 8, !tbaa !21
  %.not = icmp ult i64 %26, %30
  br i1 %.not, label %34, label %.thread

.thread:                                          ; preds = %28, %.lr.ph
  %31 = load i64, ptr @H5E_DATASPACE_g, align 8, !tbaa !21
  %32 = load i64, ptr @H5E_BADRANGE_g, align 8, !tbaa !21
  %33 = tail call i32 (ptr, ptr, i32, i64, i64, ptr, ...) @H5E_printf_stack(ptr noundef nonnull @.str, ptr noundef nonnull @__func__.H5S__point_offset, i32 noundef 1773, i64 noundef %31, i64 noundef %32, ptr noundef nonnull @.str.47) #15
  br label %.loopexit

34:                                               ; preds = %28
  %35 = mul i64 %26, %.02735
  %36 = add i64 %21, %35
  store i64 %36, ptr %1, align 8, !tbaa !21
  %37 = load i64, ptr %29, align 8, !tbaa !21
  %38 = mul i64 %37, %.02735
  %39 = icmp samesign ugt i64 %indvars.iv, 1
  br i1 %39, label %.lr.ph, label %.loopexit

.loopexit:                                        ; preds = %34, %9, %.thread, %2
  %.024 = phi i32 [ 0, %2 ], [ -1, %.thread ], [ 0, %9 ], [ 0, %34 ]
  ret i32 %.024
}